; Function Attrs: nounwind uwtable
define internal fastcc i32 @prs_branch(ptr noundef nonnull writeonly captures(none) initializes((0, 8)) %0, ptr noundef nonnull %1, i32 noundef range(i32 0, 16) %2, ptr noundef nonnull captures(none) %3, ptr noundef %4, ptr noundef %5, i32 noundef range(i32 0, 2) %6) unnamed_addr #2 {
  %8 = alloca ptr, align 8
  call void @llvm.lifetime.start.p0(i64 8, ptr nonnull %8) #25
  store ptr null, ptr %0, align 8, !tbaa !112
  %9 = getelementptr inbounds nuw i8, ptr %5, i64 264
  %10 = load i32, ptr %9, align 8, !tbaa !178
  %11 = add i32 %10, 1
  store i32 %11, ptr %9, align 8, !tbaa !178
  %12 = load i32, ptr @ParseDepthLimit, align 4, !tbaa !8
  %13 = icmp ugt i32 %11, %12
  br i1 %13, label %onig_node_free.exit, label %14

14:                                               ; preds = %7
  %15 = call fastcc i32 @prs_exp(ptr noundef %8, ptr noundef %1, i32 noundef %2, ptr noundef %3, ptr noundef %4, ptr noundef nonnull %5, i32 noundef %6)
  %16 = icmp slt i32 %15, 0
  br i1 %16, label %17, label %21

17:                                               ; preds = %14
  %18 = load ptr, ptr %8, align 8, !tbaa !112
  %19 = icmp eq ptr %18, null
  br i1 %19, label %onig_node_free.exit, label %20

20:                                               ; preds = %17
  tail call fastcc void @node_free_body(ptr noundef nonnull %18)
  tail call void @free(ptr noundef nonnull %18) #25
  br label %onig_node_free.exit

21:                                               ; preds = %14
  %22 = icmp eq i32 %15, 0
  br i1 %22, label %26, label %23

23:                                               ; preds = %21
  %24 = icmp eq i32 %15, %2
  %25 = icmp eq i32 %15, 13
  %or.cond = or i1 %24, %25
  br i1 %or.cond, label %26, label %28

26:                                               ; preds = %23, %21
  %27 = load ptr, ptr %8, align 8, !tbaa !112
  store ptr %27, ptr %0, align 8, !tbaa !112
  br label %.critedge

28:                                               ; preds = %23
  %29 = load ptr, ptr %8, align 8, !tbaa !112
  %calloc.i.i = tail call noalias noundef dereferenceable_or_null(72) ptr @calloc(i64 1, i64 72)
  %30 = icmp eq ptr %calloc.i.i, null
  br i1 %30, label %31, label %35

.thread:                                          ; preds = %53
  store ptr null, ptr %.060, align 8, !tbaa !112
  br label %33

31:                                               ; preds = %28
  store ptr null, ptr %0, align 8, !tbaa !112
  %32 = icmp eq ptr %29, null
  br i1 %32, label %onig_node_free.exit, label %33

33:                                               ; preds = %.thread, %31
  %34 = phi ptr [ %43, %.thread ], [ %29, %31 ]
  tail call fastcc void @node_free_body(ptr noundef nonnull %34)
  tail call void @free(ptr noundef nonnull %34) #25
  br label %onig_node_free.exit

35:                                               ; preds = %28
  store i32 7, ptr %calloc.i.i, align 8, !tbaa !10
  %36 = getelementptr inbounds nuw i8, ptr %calloc.i.i, i64 16
  store ptr %29, ptr %36, align 8, !tbaa !10
  store ptr %calloc.i.i, ptr %0, align 8, !tbaa !112
  br label %37

37:                                               ; preds = %35, %58
  %calloc.i.i.pn = phi ptr [ %calloc.i.i, %35 ], [ %calloc.i.i52.pn, %58 ]
  %.14059 = phi i32 [ %15, %35 ], [ %41, %58 ]
  %.060 = getelementptr inbounds nuw i8, ptr %calloc.i.i.pn, i64 24
  %38 = icmp ne i32 %.14059, %2
  %39 = icmp ne i32 %.14059, 13
  %or.cond3 = and i1 %38, %39
  br i1 %or.cond3, label %40, label %.critedge

40:                                               ; preds = %37
  %41 = call fastcc i32 @prs_exp(ptr noundef %8, ptr noundef %1, i32 noundef %2, ptr noundef %3, ptr noundef %4, ptr noundef nonnull %5, i32 noundef 0)
  %42 = icmp slt i32 %41, 0
  %43 = load ptr, ptr %8, align 8, !tbaa !112
  br i1 %42, label %44, label %45

44:                                               ; preds = %40
  tail call void @onig_node_free(ptr noundef %43)
  br label %onig_node_free.exit

45:                                               ; preds = %40
  %46 = load i32, ptr %43, align 8, !tbaa !10
  %47 = icmp eq i32 %46, 7
  br i1 %47, label %48, label %53

48:                                               ; preds = %45
  store ptr %43, ptr %.060, align 8, !tbaa !112
  br label %49

49:                                               ; preds = %49, %48
  %50 = phi ptr [ %52, %49 ], [ %43, %48 ]
  %51 = getelementptr inbounds nuw i8, ptr %50, i64 24
  %52 = load ptr, ptr %51, align 8, !tbaa !10
  %.not50 = icmp eq ptr %52, null
  br i1 %.not50, label %.loopexit, label %49, !llvm.loop !188

53:                                               ; preds = %45
  %calloc.i.i52 = tail call noalias noundef dereferenceable_or_null(72) ptr @calloc(i64 1, i64 72)
  %54 = icmp eq ptr %calloc.i.i52, null
  br i1 %54, label %.thread, label %55

55:                                               ; preds = %53
  store i32 7, ptr %calloc.i.i52, align 8, !tbaa !10
  %56 = getelementptr inbounds nuw i8, ptr %calloc.i.i52, i64 16
  store ptr %43, ptr %56, align 8, !tbaa !10
  %57 = getelementptr inbounds nuw i8, ptr %calloc.i.i52, i64 24
  store ptr null, ptr %57, align 8, !tbaa !10
  store ptr %calloc.i.i52, ptr %.060, align 8, !tbaa !112
  br label %58

.loopexit:                                        ; preds = %49
  store ptr %50, ptr %8, align 8
  br label %58

58:                                               ; preds = %.loopexit, %55
  %calloc.i.i52.pn = phi ptr [ %calloc.i.i52, %55 ], [ %50, %.loopexit ]
  %.not = icmp eq i32 %41, 0
  br i1 %.not, label %.critedge, label %37, !llvm.loop !189

.critedge:                                        ; preds = %58, %37, %26
  %.039 = phi i32 [ %15, %26 ], [ 0, %58 ], [ %.14059, %37 ]
  %59 = load i32, ptr %9, align 8, !tbaa !178
  %60 = add i32 %59, -1
  store i32 %60, ptr %9, align 8, !tbaa !178
  br label %onig_node_free.exit

onig_node_free.exit:                              ; preds = %33, %31, %20, %17, %7, %.critedge, %44
  %.041 = phi i32 [ %.039, %.critedge ], [ %41, %44 ], [ -16, %7 ], [ %15, %17 ], [ %15, %20 ], [ -5, %31 ], [ -5, %33 ]
  call void @llvm.lifetime.end.p0(i64 8, ptr nonnull %8) #25
  ret i32 %.041
}